target datalayout = "e-m:e-p270:32:32-p271:32:32-p272:64:64-i64:64-i128:128-f80:128-n8:16:32:64-S128"
target triple = "x86_64-pc-linux-gnu"

%"class.rocksdb::MergeIteratorBuilder" = type { ptr, ptr, i8, ptr, %"class.std::vector.71" }
%"class.std::vector.71" = type { %"struct.std::_Vector_base.72" }
%"struct.std::_Vector_base.72" = type { %"struct.std::_Vector_base<std::pair<unsigned long, std::unique_ptr<rocksdb::TruncatedRangeDelIterator> **>, std::allocator<std::pair<unsigned long, std::unique_ptr<rocksdb::TruncatedRangeDelIterator> **>>>::_Vector_impl" }
%"struct.std::_Vector_base<std::pair<unsigned long, std::unique_ptr<rocksdb::TruncatedRangeDelIterator> **>, std::allocator<std::pair<unsigned long, std::unique_ptr<rocksdb::TruncatedRangeDelIterator> **>>>::_Vector_impl" = type { %"struct.std::_Vector_base<std::pair<unsigned long, std::unique_ptr<rocksdb::TruncatedRangeDelIterator> **>, std::allocator<std::pair<unsigned long, std::unique_ptr<rocksdb::TruncatedRangeDelIterator> **>>>::_Vector_impl_data" }
%"struct.std::_Vector_base<std::pair<unsigned long, std::unique_ptr<rocksdb::TruncatedRangeDelIterator> **>, std::allocator<std::pair<unsigned long, std::unique_ptr<rocksdb::TruncatedRangeDelIterator> **>>>::_Vector_impl_data" = type { ptr, ptr, ptr }

; Function Attrs: mustprogress nounwind uwtable
define linkonce_odr void @_ZNSt15__new_allocatorISt4pairImPPSt10unique_ptrIN7rocksdb25TruncatedRangeDelIteratorESt14default_deleteIS3_EEEE10deallocateEPS9_m(ptr noundef nonnull align 1 dereferenceable(1) %0, ptr noundef %1, i64 noundef %2) #5 comdat align 2 {
  %4 = alloca ptr, align 8
  %5 = alloca ptr, align 8
  %6 = alloca i64, align 8
  store ptr %0, ptr %4, align 8, !tbaa !598
  store ptr %1, ptr %5, align 8, !tbaa !308
  store i64 %2, ptr %6, align 8, !tbaa !4
  %7 = load ptr, ptr %5, align 8, !tbaa !308
  %8 = load i64, ptr %6, align 8, !tbaa !4
  %9 = mul i64 %8, 16
  call void @_ZdlPvm(ptr noundef %7, i64 noundef %9) #24
  ret void
}

; Function Attrs: mustprogress uwtable
define linkonce_odr void @_ZNSt16allocator_traitsISaISt4pairImPPSt10unique_ptrIN7rocksdb25TruncatedRangeDelIteratorESt14default_deleteIS3_EEEEE10deallocateERSA_PS9_m(ptr noundef nonnull align 1 dereferenceable(1) %0, ptr noundef %1, i64 noundef %2) #4 comdat align 2 {
  %4 = alloca ptr, align 8
  %5 = alloca ptr, align 8
  %6 = alloca i64, align 8
  store ptr %0, ptr %4, align 8, !tbaa !594
  store ptr %1, ptr %5, align 8, !tbaa !308
  store i64 %2, ptr %6, align 8, !tbaa !4
  %7 = load ptr, ptr %4, align 8, !tbaa !594
  %8 = load ptr, ptr %5, align 8, !tbaa !308
  %9 = load i64, ptr %6, align 8, !tbaa !4
  call void @_ZNSt15__new_allocatorISt4pairImPPSt10unique_ptrIN7rocksdb25TruncatedRangeDelIteratorESt14default_deleteIS3_EEEE10deallocateEPS9_m(ptr noundef nonnull align 1 dereferenceable(1) %7, ptr noundef %8, i64 noundef %9)
  ret void
}

; Function Attrs: mustprogress nounwind uwtable
define linkonce_odr void @_ZNSt12_Destroy_auxILb1EE9__destroyIPSt4pairImPPSt10unique_ptrIN7rocksdb25TruncatedRangeDelIteratorESt14default_deleteIS5_EEEEEvT_SD_(ptr noundef %0, ptr noundef %1) #5 comdat align 2 {
  %3 = alloca ptr, align 8
  %4 = alloca ptr, align 8
  store ptr %0, ptr %3, align 8, !tbaa !308
  store ptr %1, ptr %4, align 8, !tbaa !308
  ret void
}

; Function Attrs: mustprogress nounwind uwtable
define linkonce_odr void @_ZNSt15__new_allocatorISt4pairImPPSt10unique_ptrIN7rocksdb25TruncatedRangeDelIteratorESt14default_deleteIS3_EEEED2Ev(ptr noundef nonnull align 1 dereferenceable(1) %0) unnamed_addr #5 comdat align 2 {
  %2 = alloca ptr, align 8
  store ptr %0, ptr %2, align 8, !tbaa !598
  ret void
}

; Function Attrs: mustprogress uwtable
define linkonce_odr void @_ZNSt12_Vector_baseISt4pairImPPSt10unique_ptrIN7rocksdb25TruncatedRangeDelIteratorESt14default_deleteIS3_EEESaIS9_EE13_M_deallocateEPS9_m(ptr noundef nonnull align 8 dereferenceable(24) %0, ptr noundef %1, i64 noundef %2) #4 comdat align 2 {
  %4 = alloca ptr, align 8
  %5 = alloca ptr, align 8
  %6 = alloca i64, align 8
  store ptr %0, ptr %4, align 8, !tbaa !590
  store ptr %1, ptr %5, align 8, !tbaa !308
  store i64 %2, ptr %6, align 8, !tbaa !4
  %7 = load ptr, ptr %4, align 8
  %8 = load ptr, ptr %5, align 8, !tbaa !308
  %9 = icmp ne ptr %8, null
  br i1 %9, label %10, label %14

10:                                               ; preds = %3
  %11 = getelementptr inbounds nuw %"struct.std::_Vector_base.72", ptr %7, i32 0, i32 0
  %12 = load ptr, ptr %5, align 8, !tbaa !308
  %13 = load i64, ptr %6, align 8, !tbaa !4
  call void @_ZNSt16allocator_traitsISaISt4pairImPPSt10unique_ptrIN7rocksdb25TruncatedRangeDelIteratorESt14default_deleteIS3_EEEEE10deallocateERSA_PS9_m(ptr noundef nonnull align 1 dereferenceable(1) %11, ptr noundef %12, i64 noundef %13)
  br label %14

14:                                               ; preds = %10, %3
  ret void
}

; Function Attrs: inlinehint mustprogress uwtable
define linkonce_odr void @_ZSt8_DestroyIPSt4pairImPPSt10unique_ptrIN7rocksdb25TruncatedRangeDelIteratorESt14default_deleteIS3_EEEEvT_SB_(ptr noundef %0, ptr noundef %1) #3 comdat {
  %3 = alloca ptr, align 8
  %4 = alloca ptr, align 8
  store ptr %0, ptr %3, align 8, !tbaa !308
  store ptr %1, ptr %4, align 8, !tbaa !308
  %5 = load ptr, ptr %3, align 8, !tbaa !308
  %6 = load ptr, ptr %4, align 8, !tbaa !308
  call void @_ZNSt12_Destroy_auxILb1EE9__destroyIPSt4pairImPPSt10unique_ptrIN7rocksdb25TruncatedRangeDelIteratorESt14default_deleteIS5_EEEEEvT_SD_(ptr noundef %5, ptr noundef %6)
  ret void
}

; Function Attrs: noinline noreturn nounwind uwtable
define linkonce_odr hidden void @__clang_call_terminate(ptr noundef %0) #14 comdat {
  %2 = call ptr @__cxa_begin_catch(ptr %0) #6
  call void @_ZSt9terminatev() #21
  unreachable
}

; Function Attrs: mustprogress nounwind uwtable
define linkonce_odr void @_ZNSt12_Vector_baseISt4pairImPPSt10unique_ptrIN7rocksdb25TruncatedRangeDelIteratorESt14default_deleteIS3_EEESaIS9_EED2Ev(ptr noundef nonnull align 8 dereferenceable(24) %0) unnamed_addr #5 comdat align 2 personality ptr @__gxx_personality_v0 {
  %2 = alloca ptr, align 8
  store ptr %0, ptr %2, align 8, !tbaa !590
  %3 = load ptr, ptr %2, align 8
  %4 = getelementptr inbounds nuw %"struct.std::_Vector_base.72", ptr %3, i32 0, i32 0
  %5 = getelementptr inbounds nuw %"struct.std::_Vector_base<std::pair<unsigned long, std::unique_ptr<rocksdb::TruncatedRangeDelIterator> **>, std::allocator<std::pair<unsigned long, std::unique_ptr<rocksdb::TruncatedRangeDelIterator> **>>>::_Vector_impl_data", ptr %4, i32 0, i32 0
  %6 = load ptr, ptr %5, align 8, !tbaa !293
  %7 = getelementptr inbounds nuw %"struct.std::_Vector_base.72", ptr %3, i32 0, i32 0
  %8 = getelementptr inbounds nuw %"struct.std::_Vector_base<std::pair<unsigned long, std::unique_ptr<rocksdb::TruncatedRangeDelIterator> **>, std::allocator<std::pair<unsigned long, std::unique_ptr<rocksdb::TruncatedRangeDelIterator> **>>>::_Vector_impl_data", ptr %7, i32 0, i32 2
  %9 = load ptr, ptr %8, align 8, !tbaa !305
  %10 = getelementptr inbounds nuw %"struct.std::_Vector_base.72", ptr %3, i32 0, i32 0
  %11 = getelementptr inbounds nuw %"struct.std::_Vector_base<std::pair<unsigned long, std::unique_ptr<rocksdb::TruncatedRangeDelIterator> **>, std::allocator<std::pair<unsigned long, std::unique_ptr<rocksdb::TruncatedRangeDelIterator> **>>>::_Vector_impl_data", ptr %10, i32 0, i32 0
  %12 = load ptr, ptr %11, align 8, !tbaa !293
  %13 = ptrtoint ptr %9 to i64
  %14 = ptrtoint ptr %12 to i64
  %15 = sub i64 %13, %14
  %16 = sdiv exact i64 %15, 16
  invoke void @_ZNSt12_Vector_baseISt4pairImPPSt10unique_ptrIN7rocksdb25TruncatedRangeDelIteratorESt14default_deleteIS3_EEESaIS9_EE13_M_deallocateEPS9_m(ptr noundef nonnull align 8 dereferenceable(24) %3, ptr noundef %6, i64 noundef %16)
          to label %17 unwind label %19

17:                                               ; preds = %1
  %18 = getelementptr inbounds nuw %"struct.std::_Vector_base.72", ptr %3, i32 0, i32 0
  call void @_ZNSt15__new_allocatorISt4pairImPPSt10unique_ptrIN7rocksdb25TruncatedRangeDelIteratorESt14default_deleteIS3_EEEED2Ev(ptr noundef nonnull align 8 dereferenceable(24) %18) #6
  ret void

19:                                               ; preds = %1
  %20 = landingpad { ptr, i32 }
          catch ptr null
  %21 = extractvalue { ptr, i32 } %20, 0
  call void @__clang_call_terminate(ptr %21) #21
  unreachable
}

; Function Attrs: inlinehint mustprogress uwtable
define linkonce_odr void @_ZSt8_DestroyIPSt4pairImPPSt10unique_ptrIN7rocksdb25TruncatedRangeDelIteratorESt14default_deleteIS3_EEES9_EvT_SB_RSaIT0_E(ptr noundef %0, ptr noundef %1, ptr noundef nonnull align 1 dereferenceable(1) %2) #3 comdat {
  %4 = alloca ptr, align 8
  %5 = alloca ptr, align 8
  %6 = alloca ptr, align 8
  store ptr %0, ptr %4, align 8, !tbaa !308
  store ptr %1, ptr %5, align 8, !tbaa !308
  store ptr %2, ptr %6, align 8, !tbaa !594
  %7 = load ptr, ptr %4, align 8, !tbaa !308
  %8 = load ptr, ptr %5, align 8, !tbaa !308
  call void @_ZSt8_DestroyIPSt4pairImPPSt10unique_ptrIN7rocksdb25TruncatedRangeDelIteratorESt14default_deleteIS3_EEEEvT_SB_(ptr noundef %7, ptr noundef %8)
  ret void
}

; Function Attrs: mustprogress nounwind uwtable
define linkonce_odr noundef nonnull align 1 dereferenceable(1) ptr @_ZNSt12_Vector_baseISt4pairImPPSt10unique_ptrIN7rocksdb25TruncatedRangeDelIteratorESt14default_deleteIS3_EEESaIS9_EE19_M_get_Tp_allocatorEv(ptr noundef nonnull align 8 dereferenceable(24) %0) #5 comdat align 2 {
  %2 = alloca ptr, align 8
  store ptr %0, ptr %2, align 8, !tbaa !590
  %3 = load ptr, ptr %2, align 8
  %4 = getelementptr inbounds nuw %"struct.std::_Vector_base.72", ptr %3, i32 0, i32 0
  ret ptr %4
}

; Function Attrs: mustprogress nounwind uwtable
define linkonce_odr void @_ZNSt6vectorISt4pairImPPSt10unique_ptrIN7rocksdb25TruncatedRangeDelIteratorESt14default_deleteIS3_EEESaIS9_EED2Ev(ptr noundef nonnull align 8 dereferenceable(24) %0) unnamed_addr #5 comdat align 2 personality ptr @__gxx_personality_v0 {
  %2 = alloca ptr, align 8
  store ptr %0, ptr %2, align 8, !tbaa !291
  %3 = load ptr, ptr %2, align 8
  %4 = getelementptr inbounds nuw %"struct.std::_Vector_base.72", ptr %3, i32 0, i32 0
  %5 = getelementptr inbounds nuw %"struct.std::_Vector_base<std::pair<unsigned long, std::unique_ptr<rocksdb::TruncatedRangeDelIterator> **>, std::allocator<std::pair<unsigned long, std::unique_ptr<rocksdb::TruncatedRangeDelIterator> **>>>::_Vector_impl_data", ptr %4, i32 0, i32 0
  %6 = load ptr, ptr %5, align 8, !tbaa !293
  %7 = getelementptr inbounds nuw %"struct.std::_Vector_base.72", ptr %3, i32 0, i32 0
  %8 = getelementptr inbounds nuw %"struct.std::_Vector_base<std::pair<unsigned long, std::unique_ptr<rocksdb::TruncatedRangeDelIterator> **>, std::allocator<std::pair<unsigned long, std::unique_ptr<rocksdb::TruncatedRangeDelIterator> **>>>::_Vector_impl_data", ptr %7, i32 0, i32 1
  %9 = load ptr, ptr %8, align 8, !tbaa !294
  %10 = call noundef nonnull align 1 dereferenceable(1) ptr @_ZNSt12_Vector_baseISt4pairImPPSt10unique_ptrIN7rocksdb25TruncatedRangeDelIteratorESt14default_deleteIS3_EEESaIS9_EE19_M_get_Tp_allocatorEv(ptr noundef nonnull align 8 dereferenceable(24) %3) #6
  invoke void @_ZSt8_DestroyIPSt4pairImPPSt10unique_ptrIN7rocksdb25TruncatedRangeDelIteratorESt14default_deleteIS3_EEES9_EvT_SB_RSaIT0_E(ptr noundef %6, ptr noundef %9, ptr noundef nonnull align 1 dereferenceable(1) %10)
          to label %11 unwind label %12

11:                                               ; preds = %1
  call void @_ZNSt12_Vector_baseISt4pairImPPSt10unique_ptrIN7rocksdb25TruncatedRangeDelIteratorESt14default_deleteIS3_EEESaIS9_EED2Ev(ptr noundef nonnull align 8 dereferenceable(24) %3) #6
  ret void

12:                                               ; preds = %1
  %13 = landingpad { ptr, i32 }
          catch ptr null
  %14 = extractvalue { ptr, i32 } %13, 0
  call void @__clang_call_terminate(ptr %14) #21
  unreachable
}

; Function Attrs: mustprogress nounwind uwtable
define void @_ZN7rocksdb20MergeIteratorBuilderD2Ev(ptr noundef nonnull align 8 dereferenceable(56) %0) unnamed_addr #5 align 2 {
  %2 = alloca ptr, align 8
  store ptr %0, ptr %2, align 8, !tbaa !279
  %3 = load ptr, ptr %2, align 8
  %4 = getelementptr inbounds nuw %"class.rocksdb::MergeIteratorBuilder", ptr %3, i32 0, i32 1
  %5 = load ptr, ptr %4, align 8, !tbaa !281
  %6 = icmp ne ptr %5, null
  br i1 %6, label %7, label %13

7:                                                ; preds = %1
  %8 = getelementptr inbounds nuw %"class.rocksdb::MergeIteratorBuilder", ptr %3, i32 0, i32 1
  %9 = load ptr, ptr %8, align 8, !tbaa !281
  %10 = load ptr, ptr %9, align 8, !tbaa !26
  %11 = getelementptr inbounds ptr, ptr %10, i64 0
  %12 = load ptr, ptr %11, align 8
  call void %12(ptr noundef nonnull align 8 dereferenceable(40) %9) #6
  br label %13

13:                                               ; preds = %7, %1
  %14 = getelementptr inbounds nuw %"class.rocksdb::MergeIteratorBuilder", ptr %3, i32 0, i32 0
  %15 = load ptr, ptr %14, align 8, !tbaa !290
  %16 = icmp ne ptr %15, null
  br i1 %16, label %17, label %23

17:                                               ; preds = %13
  %18 = getelementptr inbounds nuw %"class.rocksdb::MergeIteratorBuilder", ptr %3, i32 0, i32 0
  %19 = load ptr, ptr %18, align 8, !tbaa !290
  %20 = load ptr, ptr %19, align 8, !tbaa !26
  %21 = getelementptr inbounds ptr, ptr %20, i64 0
  %22 = load ptr, ptr %21, align 8
  call void %22(ptr noundef nonnull align 8 dereferenceable(344) %19) #6
  br label %23

23:                                               ; preds = %17, %13
  %24 = getelementptr inbounds nuw %"class.rocksdb::MergeIteratorBuilder", ptr %3, i32 0, i32 4
  call void @_ZNSt6vectorISt4pairImPPSt10unique_ptrIN7rocksdb25TruncatedRangeDelIteratorESt14default_deleteIS3_EEESaIS9_EED2Ev(ptr noundef nonnull align 8 dereferenceable(24) %24) #6
  ret void
}