; Function Attrs: mustprogress nounwind uwtable
define void @_ZN7rocksdb20MergeIteratorBuilderD2Ev(ptr noundef nonnull readonly align 8 captures(none) dereferenceable(56) %0) unnamed_addr #1 align 2 personality ptr @__gxx_personality_v0 {
  %2 = getelementptr inbounds nuw i8, ptr %0, i64 8
  %3 = load ptr, ptr %2, align 8, !tbaa !482
  %.not = icmp eq ptr %3, null
  br i1 %.not, label %7, label %4

4:                                                ; preds = %1
  %5 = load ptr, ptr %3, align 8, !tbaa !66
  %6 = load ptr, ptr %5, align 8
  tail call void %6(ptr noundef nonnull align 8 dereferenceable(40) %3) #25
  br label %7

7:                                                ; preds = %4, %1
  %8 = load ptr, ptr %0, align 8, !tbaa !493
  %.not2 = icmp eq ptr %8, null
  br i1 %.not2, label %12, label %9

9:                                                ; preds = %7
  %10 = load ptr, ptr %8, align 8, !tbaa !66
  %11 = load ptr, ptr %10, align 8
  tail call void %11(ptr noundef nonnull align 8 dereferenceable(344) %8) #25
  br label %12

12:                                               ; preds = %9, %7
  %13 = getelementptr inbounds nuw i8, ptr %0, i64 32
  %14 = load ptr, ptr %13, align 8, !tbaa !494
  %.not.i.i.i = icmp eq ptr %14, null
  br i1 %.not.i.i.i, label %_ZNSt6vectorISt4pairImPPSt10unique_ptrIN7rocksdb25TruncatedRangeDelIteratorESt14default_deleteIS3_EEESaIS9_EED2Ev.exit, label %15

15:                                               ; preds = %12
  %16 = getelementptr inbounds nuw i8, ptr %0, i64 48
  %17 = load ptr, ptr %16, align 8, !tbaa !495
  %18 = ptrtoint ptr %17 to i64
  %19 = ptrtoint ptr %14 to i64
  %20 = sub i64 %18, %19
  tail call void @_ZdlPvm(ptr noundef nonnull %14, i64 noundef %20) #24
  br label %_ZNSt6vectorISt4pairImPPSt10unique_ptrIN7rocksdb25TruncatedRangeDelIteratorESt14default_deleteIS3_EEESaIS9_EED2Ev.exit

_ZNSt6vectorISt4pairImPPSt10unique_ptrIN7rocksdb25TruncatedRangeDelIteratorESt14default_deleteIS3_EEESaIS9_EED2Ev.exit: ; preds = %12, %15
  ret void
}